; Function Attrs: mustprogress uwtable
define ptr @ucnv_getName_77(ptr noundef %0, ptr noundef readonly captures(none) %1) local_unnamed_addr #0 {
  %3 = load i32, ptr %1, align 4, !tbaa !3
  %4 = icmp slt i32 %3, 1
  br i1 %4, label %5, label %19

5:                                                ; preds = %2
  %6 = getelementptr inbounds nuw i8, ptr %0, i64 48
  %7 = load ptr, ptr %6, align 8, !tbaa !8
  %8 = getelementptr inbounds nuw i8, ptr %7, i64 32
  %9 = load ptr, ptr %8, align 8, !tbaa !15
  %10 = getelementptr inbounds nuw i8, ptr %9, i64 96
  %11 = load ptr, ptr %10, align 8, !tbaa !71
  %.not10 = icmp eq ptr %11, null
  br i1 %.not10, label %14, label %12

12:                                               ; preds = %5
  %13 = tail call noundef ptr %11(ptr noundef nonnull %0)
  %.not11.not = icmp eq ptr %13, null
  br i1 %.not11.not, label %._crit_edge, label %19

._crit_edge:                                      ; preds = %12
  %.pre = load ptr, ptr %6, align 8, !tbaa !8
  br label %14

14:                                               ; preds = %._crit_edge, %5
  %15 = phi ptr [ %.pre, %._crit_edge ], [ %7, %5 ]
  %16 = getelementptr inbounds nuw i8, ptr %15, i64 16
  %17 = load ptr, ptr %16, align 8, !tbaa !44
  %18 = getelementptr inbounds nuw i8, ptr %17, i64 4
  br label %19

19:                                               ; preds = %12, %2, %14
  %.08 = phi ptr [ %13, %12 ], [ %18, %14 ], [ null, %2 ]
  ret ptr %.08
}